target datalayout = "e-m:e-p270:32:32-p271:32:32-p272:64:64-i64:64-i128:128-f80:128-n8:16:32:64-S128"
target triple = "x86_64-pc-linux-gnu"

%struct.WebPPicture = type { i32, i32, i32, i32, ptr, ptr, ptr, i32, i32, ptr, i32, [2 x i32], ptr, i32, [3 x i32], ptr, ptr, i32, ptr, ptr, i32, ptr, ptr, [3 x i32], ptr, ptr, [8 x i32], ptr, ptr, [2 x ptr] }

; Function Attrs: nounwind uwtable
define dso_local i32 @WebPImportRGB565(ptr noundef %0, ptr noundef %1) #0 {
  %3 = alloca i32, align 4
  %4 = alloca ptr, align 8
  %5 = alloca ptr, align 8
  %6 = alloca i32, align 4
  %7 = alloca i32, align 4
  %8 = alloca ptr, align 8
  %9 = alloca i32, align 4
  %10 = alloca i32, align 4
  %11 = alloca i32, align 4
  %12 = alloca i32, align 4
  %13 = alloca i32, align 4
  %14 = alloca i32, align 4
  store ptr %0, ptr %4, align 8
  store ptr %1, ptr %5, align 8
  %15 = load ptr, ptr %5, align 8
  %16 = icmp eq ptr %15, null
  br i1 %16, label %20, label %17

17:                                               ; preds = %2
  %18 = load ptr, ptr %4, align 8
  %19 = icmp eq ptr %18, null
  br i1 %19, label %20, label %21

20:                                               ; preds = %17, %2
  store i32 0, ptr %3, align 4
  br label %118

21:                                               ; preds = %17
  %22 = load ptr, ptr %5, align 8
  %23 = getelementptr inbounds %struct.WebPPicture, ptr %22, i32 0, i32 1
  store i32 0, ptr %23, align 4
  %24 = load ptr, ptr %5, align 8
  %25 = getelementptr inbounds %struct.WebPPicture, ptr %24, i32 0, i32 0
  store i32 1, ptr %25, align 8
  %26 = load ptr, ptr %5, align 8
  %27 = call i32 @WebPPictureAlloc(ptr noundef %26)
  %28 = icmp ne i32 %27, 0
  br i1 %28, label %30, label %29

29:                                               ; preds = %21
  store i32 0, ptr %3, align 4
  br label %118

30:                                               ; preds = %21
  %31 = load ptr, ptr %5, align 8
  %32 = getelementptr inbounds %struct.WebPPicture, ptr %31, i32 0, i32 12
  %33 = load ptr, ptr %32, align 8
  store ptr %33, ptr %8, align 8
  store i32 0, ptr %7, align 4
  br label %34

34:                                               ; preds = %114, %30
  %35 = load i32, ptr %7, align 4
  %36 = load ptr, ptr %5, align 8
  %37 = getelementptr inbounds %struct.WebPPicture, ptr %36, i32 0, i32 3
  %38 = load i32, ptr %37, align 4
  %39 = icmp slt i32 %35, %38
  br i1 %39, label %40, label %117

40:                                               ; preds = %34
  %41 = load ptr, ptr %5, align 8
  %42 = getelementptr inbounds %struct.WebPPicture, ptr %41, i32 0, i32 2
  %43 = load i32, ptr %42, align 8
  store i32 %43, ptr %9, align 4
  store i32 0, ptr %6, align 4
  br label %44

44:                                               ; preds = %99, %40
  %45 = load i32, ptr %6, align 4
  %46 = load i32, ptr %9, align 4
  %47 = icmp slt i32 %45, %46
  br i1 %47, label %48, label %102

48:                                               ; preds = %44
  %49 = load ptr, ptr %4, align 8
  %50 = load i32, ptr %6, align 4
  %51 = mul nsw i32 2, %50
  %52 = add nsw i32 %51, 0
  %53 = sext i32 %52 to i64
  %54 = getelementptr inbounds i8, ptr %49, i64 %53
  %55 = load i8, ptr %54, align 1
  %56 = zext i8 %55 to i32
  store i32 %56, ptr %10, align 4
  %57 = load ptr, ptr %4, align 8
  %58 = load i32, ptr %6, align 4
  %59 = mul nsw i32 2, %58
  %60 = add nsw i32 %59, 1
  %61 = sext i32 %60 to i64
  %62 = getelementptr inbounds i8, ptr %57, i64 %61
  %63 = load i8, ptr %62, align 1
  %64 = zext i8 %63 to i32
  store i32 %64, ptr %11, align 4
  %65 = load i32, ptr %10, align 4
  %66 = and i32 %65, 248
  store i32 %66, ptr %12, align 4
  %67 = load i32, ptr %10, align 4
  %68 = shl i32 %67, 5
  %69 = load i32, ptr %11, align 4
  %70 = lshr i32 %69, 3
  %71 = or i32 %68, %70
  %72 = and i32 %71, 252
  store i32 %72, ptr %13, align 4
  %73 = load i32, ptr %11, align 4
  %74 = shl i32 %73, 5
  store i32 %74, ptr %14, align 4
  %75 = load i32, ptr %12, align 4
  %76 = load i32, ptr %12, align 4
  %77 = lshr i32 %76, 5
  %78 = or i32 %75, %77
  store i32 %78, ptr %12, align 4
  %79 = load i32, ptr %13, align 4
  %80 = load i32, ptr %13, align 4
  %81 = lshr i32 %80, 6
  %82 = or i32 %79, %81
  store i32 %82, ptr %13, align 4
  %83 = load i32, ptr %14, align 4
  %84 = load i32, ptr %14, align 4
  %85 = lshr i32 %84, 5
  %86 = or i32 %83, %85
  store i32 %86, ptr %14, align 4
  %87 = load i32, ptr %12, align 4
  %88 = shl i32 %87, 16
  %89 = or i32 -16777216, %88
  %90 = load i32, ptr %13, align 4
  %91 = shl i32 %90, 8
  %92 = or i32 %89, %91
  %93 = load i32, ptr %14, align 4
  %94 = or i32 %92, %93
  %95 = load ptr, ptr %8, align 8
  %96 = load i32, ptr %6, align 4
  %97 = sext i32 %96 to i64
  %98 = getelementptr inbounds i32, ptr %95, i64 %97
  store i32 %94, ptr %98, align 4
  br label %99

99:                                               ; preds = %48
  %100 = load i32, ptr %6, align 4
  %101 = add nsw i32 %100, 1
  store i32 %101, ptr %6, align 4
  br label %44, !llvm.loop !7

102:                                              ; preds = %44
  %103 = load i32, ptr %9, align 4
  %104 = mul nsw i32 2, %103
  %105 = load ptr, ptr %4, align 8
  %106 = sext i32 %104 to i64
  %107 = getelementptr inbounds i8, ptr %105, i64 %106
  store ptr %107, ptr %4, align 8
  %108 = load ptr, ptr %5, align 8
  %109 = getelementptr inbounds %struct.WebPPicture, ptr %108, i32 0, i32 13
  %110 = load i32, ptr %109, align 8
  %111 = load ptr, ptr %8, align 8
  %112 = sext i32 %110 to i64
  %113 = getelementptr inbounds i32, ptr %111, i64 %112
  store ptr %113, ptr %8, align 8
  br label %114

114:                                              ; preds = %102
  %115 = load i32, ptr %7, align 4
  %116 = add nsw i32 %115, 1
  store i32 %116, ptr %7, align 4
  br label %34, !llvm.loop !8

117:                                              ; preds = %34
  store i32 1, ptr %3, align 4
  br label %118

118:                                              ; preds = %117, %29, %20
  %119 = load i32, ptr %3, align 4
  ret i32 %119
}